target datalayout = "e-m:e-p270:32:32-p271:32:32-p272:64:64-i64:64-i128:128-f80:128-n8:16:32:64-S128"
target triple = "x86_64-pc-linux-gnu"

%struct.WebPBitstreamFeatures = type { i32, i32, i32, i32, i32, [5 x i32] }

; Function Attrs: inlinehint nounwind uwtable
define internal i32 @WebPGetFeatures(ptr noundef %0, i64 noundef %1, ptr noundef %2) #4 {
  %4 = alloca ptr, align 8
  %5 = alloca i64, align 8
  %6 = alloca ptr, align 8
  store ptr %0, ptr %4, align 8, !tbaa !4
  store i64 %1, ptr %5, align 8, !tbaa !19
  store ptr %2, ptr %6, align 8, !tbaa !17
  %7 = load ptr, ptr %4, align 8, !tbaa !4
  %8 = load i64, ptr %5, align 8, !tbaa !19
  %9 = load ptr, ptr %6, align 8, !tbaa !17
  %10 = call i32 @WebPGetFeaturesInternal(ptr noundef %7, i64 noundef %8, ptr noundef %9, i32 noundef 528)
  ret i32 %10
}

; Function Attrs: nounwind uwtable
define hidden i32 @LoadWebP(ptr noundef %0, ptr noundef %1, ptr noundef %2, ptr noundef %3) #0 {
  %5 = alloca i32, align 4
  %6 = alloca ptr, align 8
  %7 = alloca ptr, align 8
  %8 = alloca ptr, align 8
  %9 = alloca ptr, align 8
  %10 = alloca i32, align 4
  %11 = alloca %struct.WebPBitstreamFeatures, align 4
  %12 = alloca i32, align 4
  store ptr %0, ptr %6, align 8, !tbaa !4
  store ptr %1, ptr %7, align 8, !tbaa !13
  store ptr %2, ptr %8, align 8, !tbaa !15
  store ptr %3, ptr %9, align 8, !tbaa !17
  call void @llvm.lifetime.start.p0(i64 4, ptr %10) #5
  call void @llvm.lifetime.start.p0(i64 40, ptr %11) #5
  %13 = load ptr, ptr %6, align 8, !tbaa !4
  %14 = load ptr, ptr %7, align 8, !tbaa !13
  %15 = load ptr, ptr %8, align 8, !tbaa !15
  %16 = call i32 @ImgIoUtilReadFile(ptr noundef %13, ptr noundef %14, ptr noundef %15)
  %17 = icmp ne i32 %16, 0
  br i1 %17, label %19, label %18

18:                                               ; preds = %4
  store i32 0, ptr %5, align 4
  store i32 1, ptr %12, align 4
  br label %40

19:                                               ; preds = %4
  %20 = load ptr, ptr %9, align 8, !tbaa !17
  %21 = icmp eq ptr %20, null
  br i1 %21, label %22, label %23

22:                                               ; preds = %19
  store ptr %11, ptr %9, align 8, !tbaa !17
  br label %23

23:                                               ; preds = %22, %19
  %24 = load ptr, ptr %7, align 8, !tbaa !13
  %25 = load ptr, ptr %24, align 8, !tbaa !4
  %26 = load ptr, ptr %8, align 8, !tbaa !15
  %27 = load i64, ptr %26, align 8, !tbaa !19
  %28 = load ptr, ptr %9, align 8, !tbaa !17
  %29 = call i32 @WebPGetFeatures(ptr noundef %25, i64 noundef %27, ptr noundef %28)
  store i32 %29, ptr %10, align 4, !tbaa !9
  %30 = load i32, ptr %10, align 4, !tbaa !9
  %31 = icmp ne i32 %30, 0
  br i1 %31, label %32, label %39

32:                                               ; preds = %23
  %33 = load ptr, ptr %7, align 8, !tbaa !13
  %34 = load ptr, ptr %33, align 8, !tbaa !4
  call void @WebPFree(ptr noundef %34)
  %35 = load ptr, ptr %7, align 8, !tbaa !13
  store ptr null, ptr %35, align 8, !tbaa !4
  %36 = load ptr, ptr %8, align 8, !tbaa !15
  store i64 0, ptr %36, align 8, !tbaa !19
  %37 = load ptr, ptr %6, align 8, !tbaa !4
  %38 = load i32, ptr %10, align 4, !tbaa !9
  call void @PrintWebPError(ptr noundef %37, i32 noundef %38)
  store i32 0, ptr %5, align 4
  store i32 1, ptr %12, align 4
  br label %40

39:                                               ; preds = %23
  store i32 1, ptr %5, align 4
  store i32 1, ptr %12, align 4
  br label %40

40:                                               ; preds = %39, %32, %18
  call void @llvm.lifetime.end.p0(i64 40, ptr %11) #5
  call void @llvm.lifetime.end.p0(i64 4, ptr %10) #5
  %41 = load i32, ptr %5, align 4
  ret i32 %41
}