; Function Attrs: nounwind uwtable
define hidden range(i32 0, 2) i32 @LoadWebP(ptr noundef %0, ptr noundef %1, ptr noundef %2, ptr noundef %3) local_unnamed_addr #2 {
  %5 = alloca %struct.WebPBitstreamFeatures, align 4
  call void @llvm.lifetime.start.p0(i64 40, ptr nonnull %5) #7
  %6 = tail call i32 @ImgIoUtilReadFile(ptr noundef %0, ptr noundef %1, ptr noundef %2) #7
  %.not = icmp eq i32 %6, 0
  br i1 %.not, label %14, label %7

7:                                                ; preds = %4
  %8 = icmp eq ptr %3, null
  %spec.store.select = select i1 %8, ptr %5, ptr %3
  %9 = load ptr, ptr %1, align 8, !tbaa !9
  %10 = load i64, ptr %2, align 8, !tbaa !11
  %11 = call i32 @WebPGetFeaturesInternal(ptr noundef %9, i64 noundef %10, ptr noundef nonnull %spec.store.select, i32 noundef 528) #7
  %.not14 = icmp eq i32 %11, 0
  br i1 %.not14, label %14, label %12

12:                                               ; preds = %7
  %13 = load ptr, ptr %1, align 8, !tbaa !9
  call void @WebPFree(ptr noundef %13) #7
  store ptr null, ptr %1, align 8, !tbaa !9
  store i64 0, ptr %2, align 8, !tbaa !11
  call void @PrintWebPError(ptr noundef %0, i32 noundef %11)
  br label %14

14:                                               ; preds = %7, %4, %12
  %.0 = phi i32 [ 0, %12 ], [ 0, %4 ], [ 1, %7 ]
  call void @llvm.lifetime.end.p0(i64 40, ptr nonnull %5) #7
  ret i32 %.0
}